; Function Attrs: mustprogress uwtable
define hidden void @_ZN2pb6solver18ensure_parity_sizeEj(ptr noundef nonnull align 8 dereferenceable(1049) %this, i32 noundef %v) local_unnamed_addr #3 align 2 {
entry:
  %m_parity_marks = getelementptr inbounds i8, ptr %this, i64 856
  %0 = load ptr, ptr %m_parity_marks, align 8
  %cmp.i = icmp eq ptr %0, null
  br i1 %cmp.i, label %_ZNK6vectorIjLb0EjE4sizeEv.exit.i, label %_ZNK6vectorIjLb0EjE4sizeEv.exit

_ZNK6vectorIjLb0EjE4sizeEv.exit:                  ; preds = %entry
  %arrayidx.i = getelementptr inbounds i8, ptr %0, i64 -4
  %1 = load i32, ptr %arrayidx.i, align 4
  %cmp.not = icmp ugt i32 %1, %v
  br i1 %cmp.not, label %if.end, label %_ZNK6vectorIjLb0EjE4sizeEv.exit.thread.i

_ZNK6vectorIjLb0EjE4sizeEv.exit.i:                ; preds = %entry
  %add5 = add i32 %v, 1
  %cmp.not.not.i = icmp eq i32 %add5, 0
  br i1 %cmp.not.not.i, label %if.end, label %while.cond.i.preheader

_ZNK6vectorIjLb0EjE4sizeEv.exit.thread.i:         ; preds = %_ZNK6vectorIjLb0EjE4sizeEv.exit
  %add = add i32 %v, 1
  %cmp.not15.i = icmp ult i32 %1, %add
  br i1 %cmp.not15.i, label %while.cond.i.preheader, label %if.then.i.i

while.cond.i.preheader:                           ; preds = %_ZNK6vectorIjLb0EjE4sizeEv.exit.i, %_ZNK6vectorIjLb0EjE4sizeEv.exit.thread.i
  %add7.ph = phi i32 [ %add, %_ZNK6vectorIjLb0EjE4sizeEv.exit.thread.i ], [ %add5, %_ZNK6vectorIjLb0EjE4sizeEv.exit.i ]
  %.ph = phi ptr [ %0, %_ZNK6vectorIjLb0EjE4sizeEv.exit.thread.i ], [ null, %_ZNK6vectorIjLb0EjE4sizeEv.exit.i ]
  %retval.0.i16.i.ph = phi i32 [ %1, %_ZNK6vectorIjLb0EjE4sizeEv.exit.thread.i ], [ 0, %_ZNK6vectorIjLb0EjE4sizeEv.exit.i ]
  br label %while.cond.i

if.then.i.i:                                      ; preds = %_ZNK6vectorIjLb0EjE4sizeEv.exit.thread.i
  store i32 %add, ptr %arrayidx.i, align 4
  br label %if.end

while.cond.i:                                     ; preds = %while.cond.i.preheader, %while.body.i
  %2 = phi ptr [ %.pr.pre.i, %while.body.i ], [ %.ph, %while.cond.i.preheader ]
  %cmp.i10.i = icmp eq ptr %2, null
  br i1 %cmp.i10.i, label %_ZNK6vectorIjLb0EjE8capacityEv.exit.i, label %if.end.i11.i

if.end.i11.i:                                     ; preds = %while.cond.i
  %arrayidx.i12.i = getelementptr inbounds i8, ptr %2, i64 -8
  %3 = load i32, ptr %arrayidx.i12.i, align 4
  br label %_ZNK6vectorIjLb0EjE8capacityEv.exit.i

_ZNK6vectorIjLb0EjE8capacityEv.exit.i:            ; preds = %if.end.i11.i, %while.cond.i
  %retval.0.i13.i = phi i32 [ %3, %if.end.i11.i ], [ 0, %while.cond.i ]
  %cmp3.i = icmp ult i32 %retval.0.i13.i, %add7.ph
  br i1 %cmp3.i, label %while.body.i, label %while.end.i

while.body.i:                                     ; preds = %_ZNK6vectorIjLb0EjE8capacityEv.exit.i
  tail call void @_ZN6vectorIjLb0EjE13expand_vectorEv(ptr noundef nonnull align 8 dereferenceable(8) %m_parity_marks)
  %.pr.pre.i = load ptr, ptr %m_parity_marks, align 8
  br label %while.cond.i, !llvm.loop !27

while.end.i:                                      ; preds = %_ZNK6vectorIjLb0EjE8capacityEv.exit.i
  %arrayidx.i2 = getelementptr inbounds i8, ptr %2, i64 -4
  store i32 %add7.ph, ptr %arrayidx.i2, align 4
  %cmp8.not17.i = icmp eq i32 %retval.0.i16.i.ph, %add7.ph
  br i1 %cmp8.not17.i, label %if.end, label %for.body.preheader.i

for.body.preheader.i:                             ; preds = %while.end.i
  %idx.ext6.i = zext i32 %add7.ph to i64
  %4 = load ptr, ptr %m_parity_marks, align 8
  %idx.ext.i = zext i32 %retval.0.i16.i.ph to i64
  %add.ptr.i = getelementptr i32, ptr %4, i64 %idx.ext.i
  %5 = shl nuw nsw i64 %idx.ext6.i, 2
  %6 = add nsw i64 %5, -4
  %7 = shl nuw nsw i64 %idx.ext.i, 2
  %8 = sub nsw i64 %6, %7
  %9 = add nsw i64 %8, 4
  tail call void @llvm.memset.p0.i64(ptr align 4 %add.ptr.i, i8 0, i64 %9, i1 false)
  br label %if.end

if.end:                                           ; preds = %for.body.preheader.i, %while.end.i, %if.then.i.i, %_ZNK6vectorIjLb0EjE4sizeEv.exit.i, %_ZNK6vectorIjLb0EjE4sizeEv.exit
  ret void
}